; ModuleID = '58/1081.c'
source_filename = "58/1081.c"
target datalayout = "e-m:e-p270:32:32-p271:32:32-p272:64:64-i64:64-f80:128-n8:16:32:64-S128"
target triple = "x86_64-pc-linux-gnu"

@.str = private unnamed_addr constant [3 x i8] c"1\0A\00", align 1
@.str.1 = private unnamed_addr constant [3 x i8] c"0\0A\00", align 1

; Function Attrs: noinline nounwind uwtable
define dso_local i32 @main(i32 %0, i8** %1) #0 {
  %3 = alloca i32, align 4
  %4 = alloca i32, align 4
  %5 = alloca i8**, align 8
  %6 = alloca [100 x i8], align 16
  %7 = alloca [5 x i8], align 1
  %8 = alloca i8*, align 8
  %9 = alloca i32, align 4
  %10 = alloca i32, align 4
  %11 = alloca i32, align 4
  store i32 0, i32* %3, align 4
  store i32 %0, i32* %4, align 4
  store i8** %1, i8*** %5, align 8
  %12 = getelementptr inbounds [5 x i8], [5 x i8]* %7, i64 0, i64 0
  %13 = call i32 (i8*, ...) bitcast (i32 (...)* @gets to i32 (i8*, ...)*)(i8* %12)
  %14 = getelementptr inbounds [5 x i8], [5 x i8]* %7, i64 0, i64 0
  %15 = call i32 @atoi(i8* %14) #3
  store i32 %15, i32* %9, align 4
  store i32 0, i32* %10, align 4
  br label %16

16:                                               ; preds = %110, %2
  %17 = load i32, i32* %10, align 4
  %18 = load i32, i32* %9, align 4
  %19 = icmp slt i32 %17, %18
  br i1 %19, label %20, label %113

20:                                               ; preds = %16
  %21 = getelementptr inbounds [100 x i8], [100 x i8]* %6, i64 0, i64 0
  %22 = call i32 (i8*, ...) bitcast (i32 (...)* @gets to i32 (i8*, ...)*)(i8* %21)
  store i32 0, i32* %11, align 4
  %23 = getelementptr inbounds [100 x i8], [100 x i8]* %6, i64 0, i64 0
  store i8* %23, i8** %8, align 8
  %24 = load i8*, i8** %8, align 8
  %25 = load i8, i8* %24, align 1
  %26 = sext i8 %25 to i32
  %27 = icmp sge i32 %26, 97
  br i1 %27, label %28, label %33

28:                                               ; preds = %20
  %29 = load i8*, i8** %8, align 8
  %30 = load i8, i8* %29, align 1
  %31 = sext i8 %30 to i32
  %32 = icmp sle i32 %31, 122
  br i1 %32, label %48, label %33

33:                                               ; preds = %28, %20
  %34 = load i8*, i8** %8, align 8
  %35 = load i8, i8* %34, align 1
  %36 = sext i8 %35 to i32
  %37 = icmp sge i32 %36, 65
  br i1 %37, label %38, label %43

38:                                               ; preds = %33
  %39 = load i8*, i8** %8, align 8
  %40 = load i8, i8* %39, align 1
  %41 = sext i8 %40 to i32
  %42 = icmp sle i32 %41, 90
  br i1 %42, label %48, label %43

43:                                               ; preds = %38, %33
  %44 = load i8*, i8** %8, align 8
  %45 = load i8, i8* %44, align 1
  %46 = sext i8 %45 to i32
  %47 = icmp eq i32 %46, 95
  br i1 %47, label %48, label %99

48:                                               ; preds = %43, %38, %28
  %49 = load i8*, i8** %8, align 8
  %50 = getelementptr inbounds i8, i8* %49, i32 1
  store i8* %50, i8** %8, align 8
  br label %51

51:                                               ; preds = %97, %48
  %52 = load i8*, i8** %8, align 8
  %53 = load i8, i8* %52, align 1
  %54 = sext i8 %53 to i32
  %55 = icmp ne i32 %54, 0
  br i1 %55, label %56, label %98

56:                                               ; preds = %51
  %57 = load i8*, i8** %8, align 8
  %58 = load i8, i8* %57, align 1
  %59 = sext i8 %58 to i32
  %60 = icmp sge i32 %59, 48
  br i1 %60, label %61, label %66

61:                                               ; preds = %56
  %62 = load i8*, i8** %8, align 8
  %63 = load i8, i8* %62, align 1
  %64 = sext i8 %63 to i32
  %65 = icmp sle i32 %64, 57
  br i1 %65, label %91, label %66

66:                                               ; preds = %61, %56
  %67 = load i8*, i8** %8, align 8
  %68 = load i8, i8* %67, align 1
  %69 = sext i8 %68 to i32
  %70 = icmp sge i32 %69, 97
  br i1 %70, label %71, label %76

71:                                               ; preds = %66
  %72 = load i8*, i8** %8, align 8
  %73 = load i8, i8* %72, align 1
  %74 = sext i8 %73 to i32
  %75 = icmp sle i32 %74, 122
  br i1 %75, label %91, label %76

76:                                               ; preds = %71, %66
  %77 = load i8*, i8** %8, align 8
  %78 = load i8, i8* %77, align 1
  %79 = sext i8 %78 to i32
  %80 = icmp sge i32 %79, 65
  br i1 %80, label %81, label %86

81:                                               ; preds = %76
  %82 = load i8*, i8** %8, align 8
  %83 = load i8, i8* %82, align 1
  %84 = sext i8 %83 to i32
  %85 = icmp sle i32 %84, 90
  br i1 %85, label %91, label %86

86:                                               ; preds = %81, %76
  %87 = load i8*, i8** %8, align 8
  %88 = load i8, i8* %87, align 1
  %89 = sext i8 %88 to i32
  %90 = icmp eq i32 %89, 95
  br i1 %90, label %91, label %94

91:                                               ; preds = %86, %81, %71, %61
  %92 = load i8*, i8** %8, align 8
  %93 = getelementptr inbounds i8, i8* %92, i32 1
  store i8* %93, i8** %8, align 8
  br label %97

94:                                               ; preds = %86
  %95 = load i32, i32* %11, align 4
  %96 = add nsw i32 %95, 1
  store i32 %96, i32* %11, align 4
  br label %98

97:                                               ; preds = %91
  br label %51

98:                                               ; preds = %94, %51
  br label %102

99:                                               ; preds = %43
  %100 = load i32, i32* %11, align 4
  %101 = add nsw i32 %100, 1
  store i32 %101, i32* %11, align 4
  br label %102

102:                                              ; preds = %99, %98
  %103 = load i32, i32* %11, align 4
  %104 = icmp slt i32 %103, 1
  br i1 %104, label %105, label %107

105:                                              ; preds = %102
  %106 = call i32 (i8*, ...) @printf(i8* getelementptr inbounds ([3 x i8], [3 x i8]* @.str, i64 0, i64 0))
  br label %109

107:                                              ; preds = %102
  %108 = call i32 (i8*, ...) @printf(i8* getelementptr inbounds ([3 x i8], [3 x i8]* @.str.1, i64 0, i64 0))
  br label %109

109:                                              ; preds = %107, %105
  br label %110

110:                                              ; preds = %109
  %111 = load i32, i32* %10, align 4
  %112 = add nsw i32 %111, 1
  store i32 %112, i32* %10, align 4
  br label %16

113:                                              ; preds = %16
  ret i32 0
}

declare dso_local i32 @gets(...) #1

; Function Attrs: nounwind readonly
declare dso_local i32 @atoi(i8*) #2

declare dso_local i32 @printf(i8*, ...) #1


!llvm.module.flags = !{!0}
!llvm.ident = !{!1}

!0 = !{i32 1, !"wchar_size", i32 4}
!1 = !{!"clang version 10.0.0-4ubuntu1 "}
